target datalayout = "e-m:e-p270:32:32-p271:32:32-p272:64:64-i64:64-i128:128-f80:128-n8:16:32:64-S128"
target triple = "x86_64-pc-linux-gnu"

; Function Attrs: alwaysinline nounwind willreturn memory(none) uwtable
define internal zeroext i8 @av_clip_uint8_c(i32 noundef %0) #9 {
  %2 = alloca i8, align 1
  %3 = alloca i32, align 4
  store i32 %0, ptr %3, align 4, !tbaa !54
  %4 = load i32, ptr %3, align 4, !tbaa !54
  %5 = and i32 %4, -256
  %6 = icmp ne i32 %5, 0
  br i1 %6, label %7, label %12

7:                                                ; preds = %1
  %8 = load i32, ptr %3, align 4, !tbaa !54
  %9 = xor i32 %8, -1
  %10 = ashr i32 %9, 31
  %11 = trunc i32 %10 to i8
  store i8 %11, ptr %2, align 1
  br label %15

12:                                               ; preds = %1
  %13 = load i32, ptr %3, align 4, !tbaa !54
  %14 = trunc i32 %13 to i8
  store i8 %14, ptr %2, align 1
  br label %15

15:                                               ; preds = %12, %7
  %16 = load i8, ptr %2, align 1
  ret i8 %16
}

; Function Attrs: nounwind uwtable
define internal i32 @deflicker8(ptr noundef %0, ptr noundef %1, i64 noundef %2, ptr noundef %3, i64 noundef %4, i32 noundef %5, i32 noundef %6, float noundef %7) #1 {
  %9 = alloca ptr, align 8
  %10 = alloca ptr, align 8
  %11 = alloca i64, align 8
  %12 = alloca ptr, align 8
  %13 = alloca i64, align 8
  %14 = alloca i32, align 4
  %15 = alloca i32, align 4
  %16 = alloca float, align 4
  %17 = alloca i32, align 4
  %18 = alloca i32, align 4
  store ptr %0, ptr %9, align 8, !tbaa !4
  store ptr %1, ptr %10, align 8, !tbaa !53
  store i64 %2, ptr %11, align 8, !tbaa !78
  store ptr %3, ptr %12, align 8, !tbaa !53
  store i64 %4, ptr %13, align 8, !tbaa !78
  store i32 %5, ptr %14, align 4, !tbaa !54
  store i32 %6, ptr %15, align 4, !tbaa !54
  store float %7, ptr %16, align 4, !tbaa !46
  call void @llvm.lifetime.start.p0(i64 4, ptr %17) #13
  call void @llvm.lifetime.start.p0(i64 4, ptr %18) #13
  store i32 0, ptr %18, align 4, !tbaa !54
  br label %19

19:                                               ; preds = %54, %8
  %20 = load i32, ptr %18, align 4, !tbaa !54
  %21 = load i32, ptr %15, align 4, !tbaa !54
  %22 = icmp slt i32 %20, %21
  br i1 %22, label %23, label %57

23:                                               ; preds = %19
  store i32 0, ptr %17, align 4, !tbaa !54
  br label %24

24:                                               ; preds = %44, %23
  %25 = load i32, ptr %17, align 4, !tbaa !54
  %26 = load i32, ptr %14, align 4, !tbaa !54
  %27 = icmp slt i32 %25, %26
  br i1 %27, label %28, label %47

28:                                               ; preds = %24
  %29 = load ptr, ptr %10, align 8, !tbaa !53
  %30 = load i32, ptr %17, align 4, !tbaa !54
  %31 = sext i32 %30 to i64
  %32 = getelementptr inbounds i8, ptr %29, i64 %31
  %33 = load i8, ptr %32, align 1, !tbaa !79
  %34 = zext i8 %33 to i32
  %35 = sitofp i32 %34 to float
  %36 = load float, ptr %16, align 4, !tbaa !46
  %37 = fmul nsz float %35, %36
  %38 = fptosi float %37 to i32
  %39 = call zeroext i8 @av_clip_uint8_c(i32 noundef %38) #15
  %40 = load ptr, ptr %12, align 8, !tbaa !53
  %41 = load i32, ptr %17, align 4, !tbaa !54
  %42 = sext i32 %41 to i64
  %43 = getelementptr inbounds i8, ptr %40, i64 %42
  store i8 %39, ptr %43, align 1, !tbaa !79
  br label %44

44:                                               ; preds = %28
  %45 = load i32, ptr %17, align 4, !tbaa !54
  %46 = add nsw i32 %45, 1
  store i32 %46, ptr %17, align 4, !tbaa !54
  br label %24, !llvm.loop !80

47:                                               ; preds = %24
  %48 = load i64, ptr %13, align 8, !tbaa !78
  %49 = load ptr, ptr %12, align 8, !tbaa !53
  %50 = getelementptr inbounds i8, ptr %49, i64 %48
  store ptr %50, ptr %12, align 8, !tbaa !53
  %51 = load i64, ptr %11, align 8, !tbaa !78
  %52 = load ptr, ptr %10, align 8, !tbaa !53
  %53 = getelementptr inbounds i8, ptr %52, i64 %51
  store ptr %53, ptr %10, align 8, !tbaa !53
  br label %54

54:                                               ; preds = %47
  %55 = load i32, ptr %18, align 4, !tbaa !54
  %56 = add nsw i32 %55, 1
  store i32 %56, ptr %18, align 4, !tbaa !54
  br label %19, !llvm.loop !81

57:                                               ; preds = %19
  call void @llvm.lifetime.end.p0(i64 4, ptr %18) #13
  call void @llvm.lifetime.end.p0(i64 4, ptr %17) #13
  ret i32 0
}