; Function Attrs: nofree norecurse nosync nounwind memory(argmem: readwrite) uwtable
define internal noundef i32 @deflicker8(ptr readnone captures(none) %0, ptr noundef readonly captures(none) %1, i64 noundef %2, ptr noundef writeonly captures(none) %3, i64 noundef %4, i32 noundef %5, i32 noundef %6, float noundef %7) #7 {
  %9 = icmp sgt i32 %6, 0
  %10 = icmp sgt i32 %5, 0
  %or.cond = and i1 %9, %10
  br i1 %or.cond, label %.preheader.us.preheader, label %._crit_edge21

.preheader.us.preheader:                          ; preds = %8
  %wide.trip.count = zext nneg i32 %5 to i64
  br label %.preheader.us

.preheader.us:                                    ; preds = %.preheader.us.preheader, %._crit_edge.us
  %.020.us = phi i32 [ %22, %._crit_edge.us ], [ 0, %.preheader.us.preheader ]
  %.01519.us = phi ptr [ %21, %._crit_edge.us ], [ %1, %.preheader.us.preheader ]
  %.01618.us = phi ptr [ %20, %._crit_edge.us ], [ %3, %.preheader.us.preheader ]
  br label %11

11:                                               ; preds = %.preheader.us, %11
  %indvars.iv = phi i64 [ 0, %.preheader.us ], [ %indvars.iv.next, %11 ]
  %12 = getelementptr inbounds nuw i8, ptr %.01519.us, i64 %indvars.iv
  %13 = load i8, ptr %12, align 1, !tbaa !69
  %14 = uitofp i8 %13 to float
  %15 = fmul nsz float %7, %14
  %16 = fptosi float %15 to i32
  %.not.i.us = icmp ult i32 %16, 256
  %isnotneg.i.us = icmp sgt i32 %16, -1
  %17 = sext i1 %isnotneg.i.us to i8
  %18 = trunc nuw i32 %16 to i8
  %.0.i.us = select i1 %.not.i.us, i8 %18, i8 %17
  %19 = getelementptr inbounds nuw i8, ptr %.01618.us, i64 %indvars.iv
  store i8 %.0.i.us, ptr %19, align 1, !tbaa !69
  %indvars.iv.next = add nuw nsw i64 %indvars.iv, 1
  %exitcond.not = icmp eq i64 %indvars.iv.next, %wide.trip.count
  br i1 %exitcond.not, label %._crit_edge.us, label %11, !llvm.loop !70

._crit_edge.us:                                   ; preds = %11
  %20 = getelementptr inbounds i8, ptr %.01618.us, i64 %4
  %21 = getelementptr inbounds i8, ptr %.01519.us, i64 %2
  %22 = add nuw nsw i32 %.020.us, 1
  %exitcond24.not = icmp eq i32 %22, %6
  br i1 %exitcond24.not, label %._crit_edge21, label %.preheader.us, !llvm.loop !71

._crit_edge21:                                    ; preds = %._crit_edge.us, %8
  ret i32 0
}